	.file	"test.ll"
	.text
.Ltext_begin:
	.data
	.file	1 "test.wl"
	.file	2 "sdl.wl"
	.file	3 "cstdlib.wl"
	.file	4 "cstdio.wl"
	.text
	.globl	pixelIsWhite
	.align	16, 0x90
	.type	pixelIsWhite,@function
pixelIsWhite:                           # @pixelIsWhite
	.cfi_startproc
.Lfunc_begin0:
	.loc	1 20 0                  # test.wl:20:0
# BB#0:                                 # %entry
	pushq	%rbp
.Ltmp2:
	.cfi_def_cfa_offset 16
.Ltmp3:
	.cfi_offset %rbp, -16
	movq	%rsp, %rbp
.Ltmp4:
	.cfi_def_cfa_register %rbp
	movq	%rdi, -16(%rbp)
	movl	%esi, -24(%rbp)
	movl	%edx, -32(%rbp)
	.loc	1 22 1 prologue_end     # test.wl:22:1
.Ltmp5:
	movq	-16(%rbp), %rax
	movq	8(%rax), %rcx
	movq	32(%rax), %rsi
	movzbl	9(%rcx), %ecx
	imull	-24(%rbp), %ecx
	movzwl	24(%rax), %eax
	imull	%edx, %eax
	addl	%ecx, %eax
	cltq
	cmpb	$0, (%rsi,%rax)
	setne	-40(%rbp)
	.loc	1 23 1                  # test.wl:23:1
	setne	-1(%rbp)
	movb	-1(%rbp), %al
	popq	%rbp
	ret
.Ltmp6:
.Ltmp7:
	.size	pixelIsWhite, .Ltmp7-pixelIsWhite
.Lfunc_end0:
	.cfi_endproc

	.globl	setPixel
	.align	16, 0x90
	.type	setPixel,@function
setPixel:                               # @setPixel
	.cfi_startproc
.Lfunc_begin1:
	.loc	1 26 0                  # test.wl:26:0
# BB#0:                                 # %entry
	pushq	%rbp
.Ltmp10:
	.cfi_def_cfa_offset 16
.Ltmp11:
	.cfi_offset %rbp, -16
	movq	%rsp, %rbp
.Ltmp12:
	.cfi_def_cfa_register %rbp
	movq	%rdi, -8(%rbp)
	movl	%esi, -16(%rbp)
	movl	%edx, -24(%rbp)
	movl	%ecx, -32(%rbp)
	.loc	1 28 1 prologue_end     # test.wl:28:1
.Ltmp13:
	movq	-8(%rbp), %rax
	movq	8(%rax), %rcx
	movq	32(%rax), %rdx
	movzbl	9(%rcx), %ecx
	imull	-16(%rbp), %ecx
	movzwl	24(%rax), %eax
	imull	-24(%rbp), %eax
	addl	%ecx, %eax
	cltq
	movb	-32(%rbp), %cl
	movb	%cl, (%rdx,%rax)
	popq	%rbp
	ret
.Ltmp14:
.Ltmp15:
	.size	setPixel, .Ltmp15-setPixel
.Lfunc_end1:
	.cfi_endproc

	.globl	update
	.align	16, 0x90
	.type	update,@function
update:                                 # @update
	.cfi_startproc
.Lfunc_begin2:
	.loc	1 31 0                  # test.wl:31:0
# BB#0:                                 # %entry
	pushq	%rbp
.Ltmp19:
	.cfi_def_cfa_offset 16
.Ltmp20:
	.cfi_offset %rbp, -16
	movq	%rsp, %rbp
.Ltmp21:
	.cfi_def_cfa_register %rbp
	.loc	1 33 1 prologue_end     # test.wl:33:1
.Ltmp22:
	pushq	%rbx
	subq	$24, %rsp
.Ltmp23:
	.cfi_offset %rbx, -24
	movl	$0, -16(%rbp)
	.loc	1 34 1                  # test.wl:34:1
	movl	$1, -24(%rbp)
	jmp	.LBB2_1
	.align	16, 0x90
.LBB2_28:                               # %forupdate
                                        #   in Loop: Header=BB2_1 Depth=1
	incl	-24(%rbp)
.LBB2_1:                                # %for_condition
                                        # =>This Loop Header: Depth=1
                                        #     Child Loop BB2_3 Depth 2
	cmpl	$239, -24(%rbp)
	jg	.LBB2_27
# BB#2:                                 # %for_true
                                        #   in Loop: Header=BB2_1 Depth=1
	.loc	1 36 1                  # test.wl:36:1
	movq	%rsp, %rax
	leaq	-16(%rax), %rbx
	movq	%rbx, %rsp
	movl	$1, -16(%rax)
	jmp	.LBB2_3
	.align	16, 0x90
.LBB2_26:                               # %forupdate4
                                        #   in Loop: Header=BB2_3 Depth=2
	incl	(%rbx)
.LBB2_3:                                # %for_condition1
                                        #   Parent Loop BB2_1 Depth=1
                                        # =>  This Inner Loop Header: Depth=2
	cmpl	$319, (%rbx)            # imm = 0x13F
	jg	.LBB2_28
# BB#4:                                 # %for_true2
                                        #   in Loop: Header=BB2_3 Depth=2
	.loc	1 38 1                  # test.wl:38:1
	movl	$0, -16(%rbp)
	.loc	1 39 1                  # test.wl:39:1
	movq	surf(%rip), %rdi
	movl	(%rbx), %esi
	decl	%esi
	movl	-24(%rbp), %edx
	decl	%edx
	callq	pixelIsWhite
	testb	$1, %al
	je	.LBB2_6
# BB#5:                                 # %true
                                        #   in Loop: Header=BB2_3 Depth=2
	incl	-16(%rbp)
.LBB2_6:                                # %endif
                                        #   in Loop: Header=BB2_3 Depth=2
	.loc	1 40 1                  # test.wl:40:1
	movq	surf(%rip), %rdi
	movl	(%rbx), %esi
	movl	-24(%rbp), %edx
	decl	%edx
	callq	pixelIsWhite
	testb	$1, %al
	je	.LBB2_8
# BB#7:                                 # %true6
                                        #   in Loop: Header=BB2_3 Depth=2
	incl	-16(%rbp)
.LBB2_8:                                # %endif8
                                        #   in Loop: Header=BB2_3 Depth=2
	.loc	1 41 1                  # test.wl:41:1
	movq	surf(%rip), %rdi
	movl	(%rbx), %esi
	incl	%esi
	movl	-24(%rbp), %edx
	decl	%edx
	callq	pixelIsWhite
	testb	$1, %al
	je	.LBB2_10
# BB#9:                                 # %true9
                                        #   in Loop: Header=BB2_3 Depth=2
	incl	-16(%rbp)
.LBB2_10:                               # %endif11
                                        #   in Loop: Header=BB2_3 Depth=2
	.loc	1 42 1                  # test.wl:42:1
	movq	surf(%rip), %rdi
	movl	(%rbx), %esi
	decl	%esi
	movl	-24(%rbp), %edx
	callq	pixelIsWhite
	testb	$1, %al
	je	.LBB2_12
# BB#11:                                # %true12
                                        #   in Loop: Header=BB2_3 Depth=2
	incl	-16(%rbp)
.LBB2_12:                               # %endif14
                                        #   in Loop: Header=BB2_3 Depth=2
	.loc	1 43 1                  # test.wl:43:1
	movq	surf(%rip), %rdi
	movl	(%rbx), %esi
	incl	%esi
	movl	-24(%rbp), %edx
	callq	pixelIsWhite
	testb	$1, %al
	je	.LBB2_14
# BB#13:                                # %true15
                                        #   in Loop: Header=BB2_3 Depth=2
	incl	-16(%rbp)
.LBB2_14:                               # %endif17
                                        #   in Loop: Header=BB2_3 Depth=2
	.loc	1 44 1                  # test.wl:44:1
	movq	surf(%rip), %rdi
	movl	(%rbx), %esi
	decl	%esi
	movl	-24(%rbp), %edx
	incl	%edx
	callq	pixelIsWhite
	testb	$1, %al
	je	.LBB2_16
# BB#15:                                # %true18
                                        #   in Loop: Header=BB2_3 Depth=2
	incl	-16(%rbp)
.LBB2_16:                               # %endif20
                                        #   in Loop: Header=BB2_3 Depth=2
	.loc	1 45 1                  # test.wl:45:1
	movq	surf(%rip), %rdi
	movl	(%rbx), %esi
	movl	-24(%rbp), %edx
	incl	%edx
	callq	pixelIsWhite
	testb	$1, %al
	je	.LBB2_18
# BB#17:                                # %true21
                                        #   in Loop: Header=BB2_3 Depth=2
	incl	-16(%rbp)
.LBB2_18:                               # %endif23
                                        #   in Loop: Header=BB2_3 Depth=2
	.loc	1 46 1                  # test.wl:46:1
	movq	surf(%rip), %rdi
	movl	(%rbx), %esi
	incl	%esi
	movl	-24(%rbp), %edx
	incl	%edx
	callq	pixelIsWhite
	testb	$1, %al
	je	.LBB2_20
# BB#19:                                # %true24
                                        #   in Loop: Header=BB2_3 Depth=2
	incl	-16(%rbp)
.LBB2_20:                               # %endif26
                                        #   in Loop: Header=BB2_3 Depth=2
	.loc	1 48 1                  # test.wl:48:1
	cmpl	$1, -16(%rbp)
	jg	.LBB2_22
# BB#21:                                # %true27
                                        #   in Loop: Header=BB2_3 Depth=2
	movq	back(%rip), %rdi
	movl	(%rbx), %esi
	movl	-24(%rbp), %edx
	xorl	%ecx, %ecx
	callq	setPixel
.LBB2_22:                               # %endif29
                                        #   in Loop: Header=BB2_3 Depth=2
	.loc	1 49 1                  # test.wl:49:1
	cmpl	$3, -16(%rbp)
	jne	.LBB2_24
# BB#23:                                # %true30
                                        #   in Loop: Header=BB2_3 Depth=2
	movq	back(%rip), %rdi
	movl	(%rbx), %esi
	movl	-24(%rbp), %edx
	movl	$255, %ecx
	callq	setPixel
.LBB2_24:                               # %endif32
                                        #   in Loop: Header=BB2_3 Depth=2
	.loc	1 50 1                  # test.wl:50:1
	cmpl	$4, -16(%rbp)
	jl	.LBB2_26
# BB#25:                                # %true33
                                        #   in Loop: Header=BB2_3 Depth=2
	movq	back(%rip), %rdi
	movl	(%rbx), %esi
	movl	-24(%rbp), %edx
	xorl	%ecx, %ecx
	callq	setPixel
	jmp	.LBB2_26
.LBB2_27:                               # %exit
	.loc	1 53 1                  # test.wl:53:1
	movq	surf(%rip), %rax
	movq	32(%rax), %rdi
	movq	back(%rip), %rcx
	movq	32(%rcx), %rsi
	movzwl	24(%rax), %eax
	imull	$240, %eax, %edx
	callq	memcpy
	leaq	-8(%rbp), %rsp
	popq	%rbx
	popq	%rbp
	ret
.Ltmp24:
.Ltmp25:
	.size	update, .Ltmp25-update
.Lfunc_end2:
	.cfi_endproc

	.globl	randomize
	.align	16, 0x90
	.type	randomize,@function
randomize:                              # @randomize
	.cfi_startproc
.Lfunc_begin3:
	.loc	1 56 0                  # test.wl:56:0
# BB#0:                                 # %entry
	pushq	%rbp
.Ltmp29:
	.cfi_def_cfa_offset 16
.Ltmp30:
	.cfi_offset %rbp, -16
	movq	%rsp, %rbp
.Ltmp31:
	.cfi_def_cfa_register %rbp
	pushq	%r15
	pushq	%r14
	pushq	%r12
	pushq	%rbx
	subq	$16, %rsp
.Ltmp32:
	.cfi_offset %rbx, -48
.Ltmp33:
	.cfi_offset %r12, -40
.Ltmp34:
	.cfi_offset %r14, -32
.Ltmp35:
	.cfi_offset %r15, -24
	movq	%rdi, -40(%rbp)
	.loc	1 58 1 prologue_end     # test.wl:58:1
.Ltmp36:
	movl	$0, -48(%rbp)
	jmp	.LBB3_1
	.align	16, 0x90
.LBB3_6:                                # %forupdate
                                        #   in Loop: Header=BB3_1 Depth=1
	incl	-48(%rbp)
.LBB3_1:                                # %for_condition
                                        # =>This Loop Header: Depth=1
                                        #     Child Loop BB3_3 Depth 2
	cmpl	$239, -48(%rbp)
	jg	.LBB3_5
# BB#2:                                 # %for_true
                                        #   in Loop: Header=BB3_1 Depth=1
	.loc	1 60 1                  # test.wl:60:1
	movq	%rsp, %rax
	leaq	-16(%rax), %r12
	movq	%r12, %rsp
	movl	$0, -16(%rax)
	jmp	.LBB3_3
	.align	16, 0x90
.LBB3_4:                                # %forupdate5
                                        #   in Loop: Header=BB3_3 Depth=2
	.loc	1 62 1                  # test.wl:62:1
	movq	%rsp, %rax
	addq	$-16, %rax
	movq	%rax, %rsp
	.loc	1 63 1                  # test.wl:63:1
	movq	-40(%rbp), %rbx
	movl	(%r12), %r14d
	movl	-48(%rbp), %r15d
	callq	rand
	movq	%rbx, %rdi
	movl	%r14d, %esi
	movl	%r15d, %edx
	movl	%eax, %ecx
	callq	setPixel
	.loc	1 60 1                  # test.wl:60:1
	incl	(%r12)
.LBB3_3:                                # %for_condition2
                                        #   Parent Loop BB3_1 Depth=1
                                        # =>  This Inner Loop Header: Depth=2
	cmpl	$319, (%r12)            # imm = 0x13F
	jle	.LBB3_4
	jmp	.LBB3_6
.LBB3_5:                                # %exit
	.loc	1 66 1                  # test.wl:66:1
	leaq	-32(%rbp), %rsp
	popq	%rbx
	popq	%r12
	popq	%r14
	popq	%r15
	popq	%rbp
	ret
.Ltmp37:
.Ltmp38:
	.size	randomize, .Ltmp38-randomize
.Lfunc_end3:
	.cfi_endproc

	.globl	somefunc
	.align	16, 0x90
	.type	somefunc,@function
somefunc:                               # @somefunc
	.cfi_startproc
.Lfunc_begin4:
	.loc	1 69 0                  # test.wl:69:0
# BB#0:                                 # %entry
	pushq	%rbp
.Ltmp41:
	.cfi_def_cfa_offset 16
.Ltmp42:
	.cfi_offset %rbp, -16
	movq	%rsp, %rbp
.Ltmp43:
	.cfi_def_cfa_register %rbp
	.loc	1 72 1 prologue_end     # test.wl:72:1
.Ltmp44:
	movq	testval(%rip), %rax
	movq	%rax, -8(%rbp)
	movq	-8(%rbp), %rax
	popq	%rbp
	ret
.Ltmp45:
.Ltmp46:
	.size	somefunc, .Ltmp46-somefunc
.Lfunc_end4:
	.cfi_endproc

	.globl	main
	.align	16, 0x90
	.type	main,@function
main:                                   # @main
	.cfi_startproc
.Lfunc_begin5:
	.loc	1 75 0                  # test.wl:75:0
# BB#0:                                 # %entry
	pushq	%rbp
.Ltmp50:
	.cfi_def_cfa_offset 16
.Ltmp51:
	.cfi_offset %rbp, -16
	movq	%rsp, %rbp
.Ltmp52:
	.cfi_def_cfa_register %rbp
	pushq	%rbx
	subq	$56, %rsp
.Ltmp53:
	.cfi_offset %rbx, -24
	movl	%edi, -16(%rbp)
	movq	%rsi, -24(%rbp)
	.loc	1 77 1 prologue_end     # test.wl:77:1
.Ltmp54:
	movl	SDL_SWSURFACE(%rip), %ecx
	movl	$320, %edi              # imm = 0x140
	movl	$240, %esi
	xorl	%edx, %edx
	callq	SDL_SetVideoMode
	movq	%rax, surf(%rip)
	.loc	1 78 1                  # test.wl:78:1
	movl	SDL_SWSURFACE(%rip), %edi
	movq	8(%rax), %rax
	movzbl	8(%rax), %ecx
	movl	20(%rax), %r8d
	movl	24(%rax), %r9d
	movl	28(%rax), %edx
	movl	32(%rax), %eax
	subq	$16, %rsp
	movl	%eax, 8(%rsp)
	movl	%edx, (%rsp)
	movl	$320, %esi              # imm = 0x140
	movl	$240, %edx
	callq	SDL_CreateRGBSurface
	addq	$16, %rsp
	movq	%rax, back(%rip)
	movl	$100, %edi
	.loc	1 81 1                  # test.wl:81:1
	callq	srand
	.loc	1 82 1                  # test.wl:82:1
	movq	back(%rip), %rdi
	callq	randomize
	.loc	1 83 1                  # test.wl:83:1
	movq	surf(%rip), %rdi
	callq	randomize
	.loc	1 84 1                  # test.wl:84:1
	movq	$.L__unnamed_1, -32(%rbp)
	movl	$.L__unnamed_1, %edi
	xorl	%esi, %esi
	.loc	1 85 1                  # test.wl:85:1
	callq	SDL_WM_SetCaption
	.loc	1 87 1                  # test.wl:87:1
	movl	$5, -40(%rbp)
	.loc	1 88 1                  # test.wl:88:1
	movl	$1084227584, -48(%rbp)  # imm = 0x40A00000
	.loc	1 91 1                  # test.wl:91:1
	movb	$0, -56(%rbp)
	jmp	.LBB5_1
	.align	16, 0x90
.LBB5_2:                                # %while_true
                                        #   in Loop: Header=BB5_1 Depth=1
	.loc	1 94 1                  # test.wl:94:1
	callq	SDL_PumpEvents
	.loc	1 95 1                  # test.wl:95:1
	movq	%rsp, %rbx
	leaq	-16(%rbx), %rax
	movq	%rax, %rsp
	xorl	%edi, %edi
	callq	SDL_GetKeyState
	movq	%rax, -16(%rbx)
	.loc	1 96 1                  # test.wl:96:1
	movslq	SDLK_SPACE(%rip), %rcx
	movb	(%rax,%rcx), %al
	movb	%al, -56(%rbp)
	movl	$32, %edi
	.loc	1 97 1                  # test.wl:97:1
	callq	SDL_Delay
	.loc	1 98 1                  # test.wl:98:1
	movq	surf(%rip), %rdi
	callq	SDL_Flip
	.loc	1 99 1                  # test.wl:99:1
	callq	update
.LBB5_1:                                # %while_condition
                                        # =>This Inner Loop Header: Depth=1
	.loc	1 92 1                  # test.wl:92:1
	cmpb	$0, -56(%rbp)
	je	.LBB5_2
# BB#3:                                 # %exit
	.loc	1 102 1                 # test.wl:102:1
	movl	$0, -12(%rbp)
	xorl	%eax, %eax
	leaq	-8(%rbp), %rsp
	popq	%rbx
	popq	%rbp
	ret
.Ltmp55:
.Ltmp56:
	.size	main, .Ltmp56-main
.Lfunc_end5:
	.cfi_endproc

	.globl	Mix_PlayChannel
	.align	16, 0x90
	.type	Mix_PlayChannel,@function
Mix_PlayChannel:                        # @Mix_PlayChannel
	.cfi_startproc
.Lfunc_begin6:
	.loc	2 245 0                 # sdl.wl:245:0
# BB#0:                                 # %entry
	pushq	%rbp
.Ltmp59:
	.cfi_def_cfa_offset 16
.Ltmp60:
	.cfi_offset %rbp, -16
	movq	%rsp, %rbp
.Ltmp61:
	.cfi_def_cfa_register %rbp
	subq	$32, %rsp
	movl	%edi, -8(%rbp)
	movq	%rsi, -16(%rbp)
	movl	%edx, -24(%rbp)
	.loc	2 246 1 prologue_end    # sdl.wl:246:1
.Ltmp62:
	movl	-8(%rbp), %edi
	movq	-16(%rbp), %rsi
	movl	$-1, %ecx
	callq	Mix_PlayChannelTimed
	movl	%eax, -4(%rbp)
	movl	-4(%rbp), %eax
	addq	$32, %rsp
	popq	%rbp
	ret
.Ltmp63:
.Ltmp64:
	.size	Mix_PlayChannel, .Ltmp64-Mix_PlayChannel
.Lfunc_end6:
	.cfi_endproc

	.globl	assert
	.align	16, 0x90
	.type	assert,@function
assert:                                 # @assert
	.cfi_startproc
.Lfunc_begin7:
	.loc	3 56 0                  # cstdlib.wl:56:0
# BB#0:                                 # %entry
	pushq	%rbp
.Ltmp67:
	.cfi_def_cfa_offset 16
.Ltmp68:
	.cfi_offset %rbp, -16
	movq	%rsp, %rbp
.Ltmp69:
	.cfi_def_cfa_register %rbp
	subq	$16, %rsp
	andl	$1, %edi
	movb	%dil, -8(%rbp)
	movq	%rsi, -16(%rbp)
	.loc	3 58 1 prologue_end     # cstdlib.wl:58:1
.Ltmp70:
	movb	-8(%rbp), %al
	testb	%al, %al
	je	.LBB7_2
# BB#1:                                 # %true
	movq	-16(%rbp), %rdi
	movq	stderr(%rip), %rsi
	callq	fputs
.LBB7_2:                                # %exit
	.loc	3 59 1                  # cstdlib.wl:59:1
	movq	stderr(%rip), %rdi
	callq	fflush
	.loc	3 60 1                  # cstdlib.wl:60:1
	callq	abort
	addq	$16, %rsp
	popq	%rbp
	ret
.Ltmp71:
.Ltmp72:
	.size	assert, .Ltmp72-assert
.Lfunc_end7:
	.cfi_endproc

	.type	RAND_MAX1,@object       # @RAND_MAX1
	.section	.data.RAND_MAX1,"aGw",@progbits,RAND_MAX1,comdat
	.weak	RAND_MAX1
	.align	4
RAND_MAX1:
	.long	2147483647              # 0x7fffffff
	.size	RAND_MAX1, 4

	.type	surf,@object            # @surf
	.section	.bss.surf,"aGw",@nobits,surf,comdat
	.weak	surf
	.align	8
surf:
	.quad	0
	.size	surf, 8

	.type	back,@object            # @back
	.section	.bss.back,"aGw",@nobits,back,comdat
	.weak	back
	.align	8
back:
	.quad	0
	.size	back, 8

	.type	testval,@object         # @testval
	.section	.bss.testval,"aGw",@nobits,testval,comdat
	.weak	testval
	.align	8
testval:
	.quad	0
	.size	testval, 8

	.type	.L__unnamed_1,@object   # @0
	.section	.rodata,"a",@progbits
.L__unnamed_1:
	.asciz	"Life"
	.size	.L__unnamed_1, 5

	.type	SDL_INIT_TIMER,@object  # @SDL_INIT_TIMER
	.section	.data.SDL_INIT_TIMER,"aGw",@progbits,SDL_INIT_TIMER,comdat
	.weak	SDL_INIT_TIMER
	.align	4
SDL_INIT_TIMER:
	.long	1                       # 0x1
	.size	SDL_INIT_TIMER, 4

	.type	SDL_INIT_AUDIO,@object  # @SDL_INIT_AUDIO
	.section	.data.SDL_INIT_AUDIO,"aGw",@progbits,SDL_INIT_AUDIO,comdat
	.weak	SDL_INIT_AUDIO
	.align	4
SDL_INIT_AUDIO:
	.long	16                      # 0x10
	.size	SDL_INIT_AUDIO, 4

	.type	SDL_INIT_VIDEO,@object  # @SDL_INIT_VIDEO
	.section	.data.SDL_INIT_VIDEO,"aGw",@progbits,SDL_INIT_VIDEO,comdat
	.weak	SDL_INIT_VIDEO
	.align	4
SDL_INIT_VIDEO:
	.long	32                      # 0x20
	.size	SDL_INIT_VIDEO, 4

	.type	SDL_INIT_CDROM,@object  # @SDL_INIT_CDROM
	.section	.data.SDL_INIT_CDROM,"aGw",@progbits,SDL_INIT_CDROM,comdat
	.weak	SDL_INIT_CDROM
	.align	4
SDL_INIT_CDROM:
	.long	256                     # 0x100
	.size	SDL_INIT_CDROM, 4

	.type	SDL_INIT_JOYSTICK,@object # @SDL_INIT_JOYSTICK
	.section	.data.SDL_INIT_JOYSTICK,"aGw",@progbits,SDL_INIT_JOYSTICK,comdat
	.weak	SDL_INIT_JOYSTICK
	.align	4
SDL_INIT_JOYSTICK:
	.long	512                     # 0x200
	.size	SDL_INIT_JOYSTICK, 4

	.type	SDL_INIT_EVERYTHING,@object # @SDL_INIT_EVERYTHING
	.section	.data.SDL_INIT_EVERYTHING,"aGw",@progbits,SDL_INIT_EVERYTHING,comdat
	.weak	SDL_INIT_EVERYTHING
	.align	4
SDL_INIT_EVERYTHING:
	.long	65535                   # 0xffff
	.size	SDL_INIT_EVERYTHING, 4

	.type	SDL_APPMOUSEFOCUS,@object # @SDL_APPMOUSEFOCUS
	.section	.data.SDL_APPMOUSEFOCUS,"aGw",@progbits,SDL_APPMOUSEFOCUS,comdat
	.weak	SDL_APPMOUSEFOCUS
	.align	4
SDL_APPMOUSEFOCUS:
	.long	1                       # 0x1
	.size	SDL_APPMOUSEFOCUS, 4

	.type	SDL_APPINPUTFOCUS,@object # @SDL_APPINPUTFOCUS
	.section	.data.SDL_APPINPUTFOCUS,"aGw",@progbits,SDL_APPINPUTFOCUS,comdat
	.weak	SDL_APPINPUTFOCUS
	.align	4
SDL_APPINPUTFOCUS:
	.long	2                       # 0x2
	.size	SDL_APPINPUTFOCUS, 4

	.type	SDL_APPACTIVE,@object   # @SDL_APPACTIVE
	.section	.data.SDL_APPACTIVE,"aGw",@progbits,SDL_APPACTIVE,comdat
	.weak	SDL_APPACTIVE
	.align	4
SDL_APPACTIVE:
	.long	4                       # 0x4
	.size	SDL_APPACTIVE, 4

	.type	AUDIO_U8,@object        # @AUDIO_U8
	.section	.data.AUDIO_U8,"aGw",@progbits,AUDIO_U8,comdat
	.weak	AUDIO_U8
	.align	4
AUDIO_U8:
	.long	8                       # 0x8
	.size	AUDIO_U8, 4

	.type	AUDIO_S8,@object        # @AUDIO_S8
	.section	.data.AUDIO_S8,"aGw",@progbits,AUDIO_S8,comdat
	.weak	AUDIO_S8
	.align	4
AUDIO_S8:
	.long	32776                   # 0x8008
	.size	AUDIO_S8, 4

	.type	AUDIO_U16LSB,@object    # @AUDIO_U16LSB
	.section	.data.AUDIO_U16LSB,"aGw",@progbits,AUDIO_U16LSB,comdat
	.weak	AUDIO_U16LSB
	.align	4
AUDIO_U16LSB:
	.long	16                      # 0x10
	.size	AUDIO_U16LSB, 4

	.type	AUDIO_S16LSB,@object    # @AUDIO_S16LSB
	.section	.data.AUDIO_S16LSB,"aGw",@progbits,AUDIO_S16LSB,comdat
	.weak	AUDIO_S16LSB
	.align	4
AUDIO_S16LSB:
	.long	32784                   # 0x8010
	.size	AUDIO_S16LSB, 4

	.type	SDL_AUDIO_STOPPED,@object # @SDL_AUDIO_STOPPED
	.section	.bss.SDL_AUDIO_STOPPED,"aGw",@nobits,SDL_AUDIO_STOPPED,comdat
	.weak	SDL_AUDIO_STOPPED
	.align	4
SDL_AUDIO_STOPPED:
	.long	0                       # 0x0
	.size	SDL_AUDIO_STOPPED, 4

	.type	SDL_AUDIO_PLAYING,@object # @SDL_AUDIO_PLAYING
	.section	.data.SDL_AUDIO_PLAYING,"aGw",@progbits,SDL_AUDIO_PLAYING,comdat
	.weak	SDL_AUDIO_PLAYING
	.align	4
SDL_AUDIO_PLAYING:
	.long	1                       # 0x1
	.size	SDL_AUDIO_PLAYING, 4

	.type	SDL_AUDIO_PAUSED,@object # @SDL_AUDIO_PAUSED
	.section	.data.SDL_AUDIO_PAUSED,"aGw",@progbits,SDL_AUDIO_PAUSED,comdat
	.weak	SDL_AUDIO_PAUSED
	.align	4
SDL_AUDIO_PAUSED:
	.long	2                       # 0x2
	.size	SDL_AUDIO_PAUSED, 4

	.type	IMG_INIT_JPG,@object    # @IMG_INIT_JPG
	.section	.data.IMG_INIT_JPG,"aGw",@progbits,IMG_INIT_JPG,comdat
	.weak	IMG_INIT_JPG
	.align	4
IMG_INIT_JPG:
	.long	1                       # 0x1
	.size	IMG_INIT_JPG, 4

	.type	IMG_INIT_PNG,@object    # @IMG_INIT_PNG
	.section	.data.IMG_INIT_PNG,"aGw",@progbits,IMG_INIT_PNG,comdat
	.weak	IMG_INIT_PNG
	.align	4
IMG_INIT_PNG:
	.long	2                       # 0x2
	.size	IMG_INIT_PNG, 4

	.type	IMG_INIT_TIF,@object    # @IMG_INIT_TIF
	.section	.data.IMG_INIT_TIF,"aGw",@progbits,IMG_INIT_TIF,comdat
	.weak	IMG_INIT_TIF
	.align	4
IMG_INIT_TIF:
	.long	4                       # 0x4
	.size	IMG_INIT_TIF, 4

	.type	IMG_INIT_WEBP,@object   # @IMG_INIT_WEBP
	.section	.data.IMG_INIT_WEBP,"aGw",@progbits,IMG_INIT_WEBP,comdat
	.weak	IMG_INIT_WEBP
	.align	4
IMG_INIT_WEBP:
	.long	8                       # 0x8
	.size	IMG_INIT_WEBP, 4

	.type	SDL_DEFAULT_REPEAT_DELAY,@object # @SDL_DEFAULT_REPEAT_DELAY
	.section	.data.SDL_DEFAULT_REPEAT_DELAY,"aGw",@progbits,SDL_DEFAULT_REPEAT_DELAY,comdat
	.weak	SDL_DEFAULT_REPEAT_DELAY
	.align	4
SDL_DEFAULT_REPEAT_DELAY:
	.long	500                     # 0x1f4
	.size	SDL_DEFAULT_REPEAT_DELAY, 4

	.type	SDL_DEFAULT_REPEAT_INTERVAL,@object # @SDL_DEFAULT_REPEAT_INTERVAL
	.section	.data.SDL_DEFAULT_REPEAT_INTERVAL,"aGw",@progbits,SDL_DEFAULT_REPEAT_INTERVAL,comdat
	.weak	SDL_DEFAULT_REPEAT_INTERVAL
	.align	4
SDL_DEFAULT_REPEAT_INTERVAL:
	.long	30                      # 0x1e
	.size	SDL_DEFAULT_REPEAT_INTERVAL, 4

	.type	SDLK_BACKSPACE,@object  # @SDLK_BACKSPACE
	.section	.data.SDLK_BACKSPACE,"aGw",@progbits,SDLK_BACKSPACE,comdat
	.weak	SDLK_BACKSPACE
	.align	4
SDLK_BACKSPACE:
	.long	8                       # 0x8
	.size	SDLK_BACKSPACE, 4

	.type	SDLK_TAB,@object        # @SDLK_TAB
	.section	.data.SDLK_TAB,"aGw",@progbits,SDLK_TAB,comdat
	.weak	SDLK_TAB
	.align	4
SDLK_TAB:
	.long	9                       # 0x9
	.size	SDLK_TAB, 4

	.type	SDLK_CLEAR,@object      # @SDLK_CLEAR
	.section	.data.SDLK_CLEAR,"aGw",@progbits,SDLK_CLEAR,comdat
	.weak	SDLK_CLEAR
	.align	4
SDLK_CLEAR:
	.long	12                      # 0xc
	.size	SDLK_CLEAR, 4

	.type	SDLK_RETURN,@object     # @SDLK_RETURN
	.section	.data.SDLK_RETURN,"aGw",@progbits,SDLK_RETURN,comdat
	.weak	SDLK_RETURN
	.align	4
SDLK_RETURN:
	.long	13                      # 0xd
	.size	SDLK_RETURN, 4

	.type	SDLK_PAUSE,@object      # @SDLK_PAUSE
	.section	.data.SDLK_PAUSE,"aGw",@progbits,SDLK_PAUSE,comdat
	.weak	SDLK_PAUSE
	.align	4
SDLK_PAUSE:
	.long	19                      # 0x13
	.size	SDLK_PAUSE, 4

	.type	SDLK_ESCAPE,@object     # @SDLK_ESCAPE
	.section	.data.SDLK_ESCAPE,"aGw",@progbits,SDLK_ESCAPE,comdat
	.weak	SDLK_ESCAPE
	.align	4
SDLK_ESCAPE:
	.long	27                      # 0x1b
	.size	SDLK_ESCAPE, 4

	.type	SDLK_SPACE,@object      # @SDLK_SPACE
	.section	.data.SDLK_SPACE,"aGw",@progbits,SDLK_SPACE,comdat
	.weak	SDLK_SPACE
	.align	4
SDLK_SPACE:
	.long	32                      # 0x20
	.size	SDLK_SPACE, 4

	.type	SDLK_EXCLAIM,@object    # @SDLK_EXCLAIM
	.section	.data.SDLK_EXCLAIM,"aGw",@progbits,SDLK_EXCLAIM,comdat
	.weak	SDLK_EXCLAIM
	.align	4
SDLK_EXCLAIM:
	.long	33                      # 0x21
	.size	SDLK_EXCLAIM, 4

	.type	SDLK_QUOTEDBL,@object   # @SDLK_QUOTEDBL
	.section	.data.SDLK_QUOTEDBL,"aGw",@progbits,SDLK_QUOTEDBL,comdat
	.weak	SDLK_QUOTEDBL
	.align	4
SDLK_QUOTEDBL:
	.long	34                      # 0x22
	.size	SDLK_QUOTEDBL, 4

	.type	SDLK_HASH,@object       # @SDLK_HASH
	.section	.data.SDLK_HASH,"aGw",@progbits,SDLK_HASH,comdat
	.weak	SDLK_HASH
	.align	4
SDLK_HASH:
	.long	35                      # 0x23
	.size	SDLK_HASH, 4

	.type	SDLK_DOLLAR,@object     # @SDLK_DOLLAR
	.section	.data.SDLK_DOLLAR,"aGw",@progbits,SDLK_DOLLAR,comdat
	.weak	SDLK_DOLLAR
	.align	4
SDLK_DOLLAR:
	.long	36                      # 0x24
	.size	SDLK_DOLLAR, 4

	.type	SDLK_AMPERSAND,@object  # @SDLK_AMPERSAND
	.section	.data.SDLK_AMPERSAND,"aGw",@progbits,SDLK_AMPERSAND,comdat
	.weak	SDLK_AMPERSAND
	.align	4
SDLK_AMPERSAND:
	.long	38                      # 0x26
	.size	SDLK_AMPERSAND, 4

	.type	SDLK_QUOTE,@object      # @SDLK_QUOTE
	.section	.data.SDLK_QUOTE,"aGw",@progbits,SDLK_QUOTE,comdat
	.weak	SDLK_QUOTE
	.align	4
SDLK_QUOTE:
	.long	39                      # 0x27
	.size	SDLK_QUOTE, 4

	.type	SDLK_LEFTPAREN,@object  # @SDLK_LEFTPAREN
	.section	.data.SDLK_LEFTPAREN,"aGw",@progbits,SDLK_LEFTPAREN,comdat
	.weak	SDLK_LEFTPAREN
	.align	4
SDLK_LEFTPAREN:
	.long	40                      # 0x28
	.size	SDLK_LEFTPAREN, 4

	.type	SDLK_RIGHTPAREN,@object # @SDLK_RIGHTPAREN
	.section	.data.SDLK_RIGHTPAREN,"aGw",@progbits,SDLK_RIGHTPAREN,comdat
	.weak	SDLK_RIGHTPAREN
	.align	4
SDLK_RIGHTPAREN:
	.long	41                      # 0x29
	.size	SDLK_RIGHTPAREN, 4

	.type	SDLK_ASTERISK,@object   # @SDLK_ASTERISK
	.section	.data.SDLK_ASTERISK,"aGw",@progbits,SDLK_ASTERISK,comdat
	.weak	SDLK_ASTERISK
	.align	4
SDLK_ASTERISK:
	.long	42                      # 0x2a
	.size	SDLK_ASTERISK, 4

	.type	SDLK_PLUS,@object       # @SDLK_PLUS
	.section	.data.SDLK_PLUS,"aGw",@progbits,SDLK_PLUS,comdat
	.weak	SDLK_PLUS
	.align	4
SDLK_PLUS:
	.long	43                      # 0x2b
	.size	SDLK_PLUS, 4

	.type	SDLK_COMMA,@object      # @SDLK_COMMA
	.section	.data.SDLK_COMMA,"aGw",@progbits,SDLK_COMMA,comdat
	.weak	SDLK_COMMA
	.align	4
SDLK_COMMA:
	.long	44                      # 0x2c
	.size	SDLK_COMMA, 4

	.type	SDLK_MINUS,@object      # @SDLK_MINUS
	.section	.data.SDLK_MINUS,"aGw",@progbits,SDLK_MINUS,comdat
	.weak	SDLK_MINUS
	.align	4
SDLK_MINUS:
	.long	45                      # 0x2d
	.size	SDLK_MINUS, 4

	.type	SDLK_PERIOD,@object     # @SDLK_PERIOD
	.section	.data.SDLK_PERIOD,"aGw",@progbits,SDLK_PERIOD,comdat
	.weak	SDLK_PERIOD
	.align	4
SDLK_PERIOD:
	.long	46                      # 0x2e
	.size	SDLK_PERIOD, 4

	.type	SDLK_SLASH,@object      # @SDLK_SLASH
	.section	.data.SDLK_SLASH,"aGw",@progbits,SDLK_SLASH,comdat
	.weak	SDLK_SLASH
	.align	4
SDLK_SLASH:
	.long	47                      # 0x2f
	.size	SDLK_SLASH, 4

	.type	SDLK_0,@object          # @SDLK_0
	.section	.data.SDLK_0,"aGw",@progbits,SDLK_0,comdat
	.weak	SDLK_0
	.align	4
SDLK_0:
	.long	48                      # 0x30
	.size	SDLK_0, 4

	.type	SDLK_1,@object          # @SDLK_1
	.section	.data.SDLK_1,"aGw",@progbits,SDLK_1,comdat
	.weak	SDLK_1
	.align	4
SDLK_1:
	.long	49                      # 0x31
	.size	SDLK_1, 4

	.type	SDLK_2,@object          # @SDLK_2
	.section	.data.SDLK_2,"aGw",@progbits,SDLK_2,comdat
	.weak	SDLK_2
	.align	4
SDLK_2:
	.long	50                      # 0x32
	.size	SDLK_2, 4

	.type	SDLK_3,@object          # @SDLK_3
	.section	.data.SDLK_3,"aGw",@progbits,SDLK_3,comdat
	.weak	SDLK_3
	.align	4
SDLK_3:
	.long	51                      # 0x33
	.size	SDLK_3, 4

	.type	SDLK_4,@object          # @SDLK_4
	.section	.data.SDLK_4,"aGw",@progbits,SDLK_4,comdat
	.weak	SDLK_4
	.align	4
SDLK_4:
	.long	52                      # 0x34
	.size	SDLK_4, 4

	.type	SDLK_5,@object          # @SDLK_5
	.section	.data.SDLK_5,"aGw",@progbits,SDLK_5,comdat
	.weak	SDLK_5
	.align	4
SDLK_5:
	.long	53                      # 0x35
	.size	SDLK_5, 4

	.type	SDLK_6,@object          # @SDLK_6
	.section	.data.SDLK_6,"aGw",@progbits,SDLK_6,comdat
	.weak	SDLK_6
	.align	4
SDLK_6:
	.long	54                      # 0x36
	.size	SDLK_6, 4

	.type	SDLK_7,@object          # @SDLK_7
	.section	.data.SDLK_7,"aGw",@progbits,SDLK_7,comdat
	.weak	SDLK_7
	.align	4
SDLK_7:
	.long	55                      # 0x37
	.size	SDLK_7, 4

	.type	SDLK_8,@object          # @SDLK_8
	.section	.data.SDLK_8,"aGw",@progbits,SDLK_8,comdat
	.weak	SDLK_8
	.align	4
SDLK_8:
	.long	56                      # 0x38
	.size	SDLK_8, 4

	.type	SDLK_9,@object          # @SDLK_9
	.section	.data.SDLK_9,"aGw",@progbits,SDLK_9,comdat
	.weak	SDLK_9
	.align	4
SDLK_9:
	.long	57                      # 0x39
	.size	SDLK_9, 4

	.type	SDLK_COLON,@object      # @SDLK_COLON
	.section	.data.SDLK_COLON,"aGw",@progbits,SDLK_COLON,comdat
	.weak	SDLK_COLON
	.align	4
SDLK_COLON:
	.long	58                      # 0x3a
	.size	SDLK_COLON, 4

	.type	SDLK_SEMICOLON,@object  # @SDLK_SEMICOLON
	.section	.data.SDLK_SEMICOLON,"aGw",@progbits,SDLK_SEMICOLON,comdat
	.weak	SDLK_SEMICOLON
	.align	4
SDLK_SEMICOLON:
	.long	59                      # 0x3b
	.size	SDLK_SEMICOLON, 4

	.type	SDLK_LESS,@object       # @SDLK_LESS
	.section	.data.SDLK_LESS,"aGw",@progbits,SDLK_LESS,comdat
	.weak	SDLK_LESS
	.align	4
SDLK_LESS:
	.long	60                      # 0x3c
	.size	SDLK_LESS, 4

	.type	SDLK_EQUALS,@object     # @SDLK_EQUALS
	.section	.data.SDLK_EQUALS,"aGw",@progbits,SDLK_EQUALS,comdat
	.weak	SDLK_EQUALS
	.align	4
SDLK_EQUALS:
	.long	61                      # 0x3d
	.size	SDLK_EQUALS, 4

	.type	SDLK_GREATER,@object    # @SDLK_GREATER
	.section	.data.SDLK_GREATER,"aGw",@progbits,SDLK_GREATER,comdat
	.weak	SDLK_GREATER
	.align	4
SDLK_GREATER:
	.long	62                      # 0x3e
	.size	SDLK_GREATER, 4

	.type	SDLK_QUESTION,@object   # @SDLK_QUESTION
	.section	.data.SDLK_QUESTION,"aGw",@progbits,SDLK_QUESTION,comdat
	.weak	SDLK_QUESTION
	.align	4
SDLK_QUESTION:
	.long	63                      # 0x3f
	.size	SDLK_QUESTION, 4

	.type	SDLK_AT,@object         # @SDLK_AT
	.section	.data.SDLK_AT,"aGw",@progbits,SDLK_AT,comdat
	.weak	SDLK_AT
	.align	4
SDLK_AT:
	.long	64                      # 0x40
	.size	SDLK_AT, 4

	.type	SDLK_LEFTBRACKET,@object # @SDLK_LEFTBRACKET
	.section	.data.SDLK_LEFTBRACKET,"aGw",@progbits,SDLK_LEFTBRACKET,comdat
	.weak	SDLK_LEFTBRACKET
	.align	4
SDLK_LEFTBRACKET:
	.long	91                      # 0x5b
	.size	SDLK_LEFTBRACKET, 4

	.type	SDLK_BACKSLASH,@object  # @SDLK_BACKSLASH
	.section	.data.SDLK_BACKSLASH,"aGw",@progbits,SDLK_BACKSLASH,comdat
	.weak	SDLK_BACKSLASH
	.align	4
SDLK_BACKSLASH:
	.long	92                      # 0x5c
	.size	SDLK_BACKSLASH, 4

	.type	SDLK_RIGHTBRACKET,@object # @SDLK_RIGHTBRACKET
	.section	.data.SDLK_RIGHTBRACKET,"aGw",@progbits,SDLK_RIGHTBRACKET,comdat
	.weak	SDLK_RIGHTBRACKET
	.align	4
SDLK_RIGHTBRACKET:
	.long	93                      # 0x5d
	.size	SDLK_RIGHTBRACKET, 4

	.type	SDLK_CARET,@object      # @SDLK_CARET
	.section	.data.SDLK_CARET,"aGw",@progbits,SDLK_CARET,comdat
	.weak	SDLK_CARET
	.align	4
SDLK_CARET:
	.long	94                      # 0x5e
	.size	SDLK_CARET, 4

	.type	SDLK_UNDERSCORE,@object # @SDLK_UNDERSCORE
	.section	.data.SDLK_UNDERSCORE,"aGw",@progbits,SDLK_UNDERSCORE,comdat
	.weak	SDLK_UNDERSCORE
	.align	4
SDLK_UNDERSCORE:
	.long	95                      # 0x5f
	.size	SDLK_UNDERSCORE, 4

	.type	SDLK_BACKQUOTE,@object  # @SDLK_BACKQUOTE
	.section	.data.SDLK_BACKQUOTE,"aGw",@progbits,SDLK_BACKQUOTE,comdat
	.weak	SDLK_BACKQUOTE
	.align	4
SDLK_BACKQUOTE:
	.long	96                      # 0x60
	.size	SDLK_BACKQUOTE, 4

	.type	SDLK_a,@object          # @SDLK_a
	.section	.data.SDLK_a,"aGw",@progbits,SDLK_a,comdat
	.weak	SDLK_a
	.align	4
SDLK_a:
	.long	97                      # 0x61
	.size	SDLK_a, 4

	.type	SDLK_b,@object          # @SDLK_b
	.section	.data.SDLK_b,"aGw",@progbits,SDLK_b,comdat
	.weak	SDLK_b
	.align	4
SDLK_b:
	.long	98                      # 0x62
	.size	SDLK_b, 4

	.type	SDLK_c,@object          # @SDLK_c
	.section	.data.SDLK_c,"aGw",@progbits,SDLK_c,comdat
	.weak	SDLK_c
	.align	4
SDLK_c:
	.long	99                      # 0x63
	.size	SDLK_c, 4

	.type	SDLK_d,@object          # @SDLK_d
	.section	.data.SDLK_d,"aGw",@progbits,SDLK_d,comdat
	.weak	SDLK_d
	.align	4
SDLK_d:
	.long	100                     # 0x64
	.size	SDLK_d, 4

	.type	SDLK_e,@object          # @SDLK_e
	.section	.data.SDLK_e,"aGw",@progbits,SDLK_e,comdat
	.weak	SDLK_e
	.align	4
SDLK_e:
	.long	101                     # 0x65
	.size	SDLK_e, 4

	.type	SDLK_f,@object          # @SDLK_f
	.section	.data.SDLK_f,"aGw",@progbits,SDLK_f,comdat
	.weak	SDLK_f
	.align	4
SDLK_f:
	.long	102                     # 0x66
	.size	SDLK_f, 4

	.type	SDLK_g,@object          # @SDLK_g
	.section	.data.SDLK_g,"aGw",@progbits,SDLK_g,comdat
	.weak	SDLK_g
	.align	4
SDLK_g:
	.long	103                     # 0x67
	.size	SDLK_g, 4

	.type	SDLK_h,@object          # @SDLK_h
	.section	.data.SDLK_h,"aGw",@progbits,SDLK_h,comdat
	.weak	SDLK_h
	.align	4
SDLK_h:
	.long	104                     # 0x68
	.size	SDLK_h, 4

	.type	SDLK_i,@object          # @SDLK_i
	.section	.data.SDLK_i,"aGw",@progbits,SDLK_i,comdat
	.weak	SDLK_i
	.align	4
SDLK_i:
	.long	105                     # 0x69
	.size	SDLK_i, 4

	.type	SDLK_j,@object          # @SDLK_j
	.section	.data.SDLK_j,"aGw",@progbits,SDLK_j,comdat
	.weak	SDLK_j
	.align	4
SDLK_j:
	.long	106                     # 0x6a
	.size	SDLK_j, 4

	.type	SDLK_k,@object          # @SDLK_k
	.section	.data.SDLK_k,"aGw",@progbits,SDLK_k,comdat
	.weak	SDLK_k
	.align	4
SDLK_k:
	.long	107                     # 0x6b
	.size	SDLK_k, 4

	.type	SDLK_l,@object          # @SDLK_l
	.section	.data.SDLK_l,"aGw",@progbits,SDLK_l,comdat
	.weak	SDLK_l
	.align	4
SDLK_l:
	.long	108                     # 0x6c
	.size	SDLK_l, 4

	.type	SDLK_m,@object          # @SDLK_m
	.section	.data.SDLK_m,"aGw",@progbits,SDLK_m,comdat
	.weak	SDLK_m
	.align	4
SDLK_m:
	.long	109                     # 0x6d
	.size	SDLK_m, 4

	.type	SDLK_n,@object          # @SDLK_n
	.section	.data.SDLK_n,"aGw",@progbits,SDLK_n,comdat
	.weak	SDLK_n
	.align	4
SDLK_n:
	.long	110                     # 0x6e
	.size	SDLK_n, 4

	.type	SDLK_o,@object          # @SDLK_o
	.section	.data.SDLK_o,"aGw",@progbits,SDLK_o,comdat
	.weak	SDLK_o
	.align	4
SDLK_o:
	.long	111                     # 0x6f
	.size	SDLK_o, 4

	.type	SDLK_p,@object          # @SDLK_p
	.section	.data.SDLK_p,"aGw",@progbits,SDLK_p,comdat
	.weak	SDLK_p
	.align	4
SDLK_p:
	.long	112                     # 0x70
	.size	SDLK_p, 4

	.type	SDLK_q,@object          # @SDLK_q
	.section	.data.SDLK_q,"aGw",@progbits,SDLK_q,comdat
	.weak	SDLK_q
	.align	4
SDLK_q:
	.long	113                     # 0x71
	.size	SDLK_q, 4

	.type	SDLK_r,@object          # @SDLK_r
	.section	.data.SDLK_r,"aGw",@progbits,SDLK_r,comdat
	.weak	SDLK_r
	.align	4
SDLK_r:
	.long	114                     # 0x72
	.size	SDLK_r, 4

	.type	SDLK_s,@object          # @SDLK_s
	.section	.data.SDLK_s,"aGw",@progbits,SDLK_s,comdat
	.weak	SDLK_s
	.align	4
SDLK_s:
	.long	115                     # 0x73
	.size	SDLK_s, 4

	.type	SDLK_t,@object          # @SDLK_t
	.section	.data.SDLK_t,"aGw",@progbits,SDLK_t,comdat
	.weak	SDLK_t
	.align	4
SDLK_t:
	.long	116                     # 0x74
	.size	SDLK_t, 4

	.type	SDLK_u,@object          # @SDLK_u
	.section	.data.SDLK_u,"aGw",@progbits,SDLK_u,comdat
	.weak	SDLK_u
	.align	4
SDLK_u:
	.long	117                     # 0x75
	.size	SDLK_u, 4

	.type	SDLK_v,@object          # @SDLK_v
	.section	.data.SDLK_v,"aGw",@progbits,SDLK_v,comdat
	.weak	SDLK_v
	.align	4
SDLK_v:
	.long	118                     # 0x76
	.size	SDLK_v, 4

	.type	SDLK_w,@object          # @SDLK_w
	.section	.data.SDLK_w,"aGw",@progbits,SDLK_w,comdat
	.weak	SDLK_w
	.align	4
SDLK_w:
	.long	119                     # 0x77
	.size	SDLK_w, 4

	.type	SDLK_x,@object          # @SDLK_x
	.section	.data.SDLK_x,"aGw",@progbits,SDLK_x,comdat
	.weak	SDLK_x
	.align	4
SDLK_x:
	.long	120                     # 0x78
	.size	SDLK_x, 4

	.type	SDLK_y,@object          # @SDLK_y
	.section	.data.SDLK_y,"aGw",@progbits,SDLK_y,comdat
	.weak	SDLK_y
	.align	4
SDLK_y:
	.long	121                     # 0x79
	.size	SDLK_y, 4

	.type	SDLK_z,@object          # @SDLK_z
	.section	.data.SDLK_z,"aGw",@progbits,SDLK_z,comdat
	.weak	SDLK_z
	.align	4
SDLK_z:
	.long	122                     # 0x7a
	.size	SDLK_z, 4

	.type	SDLK_DELETE,@object     # @SDLK_DELETE
	.section	.data.SDLK_DELETE,"aGw",@progbits,SDLK_DELETE,comdat
	.weak	SDLK_DELETE
	.align	4
SDLK_DELETE:
	.long	127                     # 0x7f
	.size	SDLK_DELETE, 4

	.type	SDLK_UP,@object         # @SDLK_UP
	.section	.data.SDLK_UP,"aGw",@progbits,SDLK_UP,comdat
	.weak	SDLK_UP
	.align	4
SDLK_UP:
	.long	273                     # 0x111
	.size	SDLK_UP, 4

	.type	SDLK_DOWN,@object       # @SDLK_DOWN
	.section	.data.SDLK_DOWN,"aGw",@progbits,SDLK_DOWN,comdat
	.weak	SDLK_DOWN
	.align	4
SDLK_DOWN:
	.long	274                     # 0x112
	.size	SDLK_DOWN, 4

	.type	SDLK_RIGHT,@object      # @SDLK_RIGHT
	.section	.data.SDLK_RIGHT,"aGw",@progbits,SDLK_RIGHT,comdat
	.weak	SDLK_RIGHT
	.align	4
SDLK_RIGHT:
	.long	275                     # 0x113
	.size	SDLK_RIGHT, 4

	.type	SDLK_LEFT,@object       # @SDLK_LEFT
	.section	.data.SDLK_LEFT,"aGw",@progbits,SDLK_LEFT,comdat
	.weak	SDLK_LEFT
	.align	4
SDLK_LEFT:
	.long	276                     # 0x114
	.size	SDLK_LEFT, 4

	.type	SDLK_INSERT,@object     # @SDLK_INSERT
	.section	.data.SDLK_INSERT,"aGw",@progbits,SDLK_INSERT,comdat
	.weak	SDLK_INSERT
	.align	4
SDLK_INSERT:
	.long	277                     # 0x115
	.size	SDLK_INSERT, 4

	.type	SDLK_HOME,@object       # @SDLK_HOME
	.section	.data.SDLK_HOME,"aGw",@progbits,SDLK_HOME,comdat
	.weak	SDLK_HOME
	.align	4
SDLK_HOME:
	.long	278                     # 0x116
	.size	SDLK_HOME, 4

	.type	SDLK_END,@object        # @SDLK_END
	.section	.data.SDLK_END,"aGw",@progbits,SDLK_END,comdat
	.weak	SDLK_END
	.align	4
SDLK_END:
	.long	279                     # 0x117
	.size	SDLK_END, 4

	.type	SDLK_PAGEUP,@object     # @SDLK_PAGEUP
	.section	.data.SDLK_PAGEUP,"aGw",@progbits,SDLK_PAGEUP,comdat
	.weak	SDLK_PAGEUP
	.align	4
SDLK_PAGEUP:
	.long	280                     # 0x118
	.size	SDLK_PAGEUP, 4

	.type	SDLK_PAGEDOWN,@object   # @SDLK_PAGEDOWN
	.section	.data.SDLK_PAGEDOWN,"aGw",@progbits,SDLK_PAGEDOWN,comdat
	.weak	SDLK_PAGEDOWN
	.align	4
SDLK_PAGEDOWN:
	.long	281                     # 0x119
	.size	SDLK_PAGEDOWN, 4

	.type	KMOD_NONE,@object       # @KMOD_NONE
	.section	.bss.KMOD_NONE,"aGw",@nobits,KMOD_NONE,comdat
	.weak	KMOD_NONE
	.align	4
KMOD_NONE:
	.long	0                       # 0x0
	.size	KMOD_NONE, 4

	.type	KMOD_LSHIFT,@object     # @KMOD_LSHIFT
	.section	.data.KMOD_LSHIFT,"aGw",@progbits,KMOD_LSHIFT,comdat
	.weak	KMOD_LSHIFT
	.align	4
KMOD_LSHIFT:
	.long	1                       # 0x1
	.size	KMOD_LSHIFT, 4

	.type	KMOD_RSHIFT,@object     # @KMOD_RSHIFT
	.section	.data.KMOD_RSHIFT,"aGw",@progbits,KMOD_RSHIFT,comdat
	.weak	KMOD_RSHIFT
	.align	4
KMOD_RSHIFT:
	.long	2                       # 0x2
	.size	KMOD_RSHIFT, 4

	.type	KMOD_LCTRL,@object      # @KMOD_LCTRL
	.section	.data.KMOD_LCTRL,"aGw",@progbits,KMOD_LCTRL,comdat
	.weak	KMOD_LCTRL
	.align	4
KMOD_LCTRL:
	.long	64                      # 0x40
	.size	KMOD_LCTRL, 4

	.type	KMOD_RCTRL,@object      # @KMOD_RCTRL
	.section	.data.KMOD_RCTRL,"aGw",@progbits,KMOD_RCTRL,comdat
	.weak	KMOD_RCTRL
	.align	4
KMOD_RCTRL:
	.long	128                     # 0x80
	.size	KMOD_RCTRL, 4

	.type	KMOD_LALT,@object       # @KMOD_LALT
	.section	.data.KMOD_LALT,"aGw",@progbits,KMOD_LALT,comdat
	.weak	KMOD_LALT
	.align	4
KMOD_LALT:
	.long	256                     # 0x100
	.size	KMOD_LALT, 4

	.type	KMOD_RALT,@object       # @KMOD_RALT
	.section	.data.KMOD_RALT,"aGw",@progbits,KMOD_RALT,comdat
	.weak	KMOD_RALT
	.align	4
KMOD_RALT:
	.long	512                     # 0x200
	.size	KMOD_RALT, 4

	.type	MIX_INIT_FLAC,@object   # @MIX_INIT_FLAC
	.section	.data.MIX_INIT_FLAC,"aGw",@progbits,MIX_INIT_FLAC,comdat
	.weak	MIX_INIT_FLAC
	.align	4
MIX_INIT_FLAC:
	.long	1                       # 0x1
	.size	MIX_INIT_FLAC, 4

	.type	MIX_INIT_MOD,@object    # @MIX_INIT_MOD
	.section	.data.MIX_INIT_MOD,"aGw",@progbits,MIX_INIT_MOD,comdat
	.weak	MIX_INIT_MOD
	.align	4
MIX_INIT_MOD:
	.long	2                       # 0x2
	.size	MIX_INIT_MOD, 4

	.type	MIX_INIT_MP3,@object    # @MIX_INIT_MP3
	.section	.data.MIX_INIT_MP3,"aGw",@progbits,MIX_INIT_MP3,comdat
	.weak	MIX_INIT_MP3
	.align	4
MIX_INIT_MP3:
	.long	4                       # 0x4
	.size	MIX_INIT_MP3, 4

	.type	MIX_INIT_OGG,@object    # @MIX_INIT_OGG
	.section	.data.MIX_INIT_OGG,"aGw",@progbits,MIX_INIT_OGG,comdat
	.weak	MIX_INIT_OGG
	.align	4
MIX_INIT_OGG:
	.long	8                       # 0x8
	.size	MIX_INIT_OGG, 4

	.type	MIX_CHANNELS,@object    # @MIX_CHANNELS
	.section	.data.MIX_CHANNELS,"aGw",@progbits,MIX_CHANNELS,comdat
	.weak	MIX_CHANNELS
	.align	4
MIX_CHANNELS:
	.long	8                       # 0x8
	.size	MIX_CHANNELS, 4

	.type	MIX_NO_FADING,@object   # @MIX_NO_FADING
	.section	.bss.MIX_NO_FADING,"aGw",@nobits,MIX_NO_FADING,comdat
	.weak	MIX_NO_FADING
	.align	4
MIX_NO_FADING:
	.long	0                       # 0x0
	.size	MIX_NO_FADING, 4

	.type	MIX_FADING_OUT,@object  # @MIX_FADING_OUT
	.section	.data.MIX_FADING_OUT,"aGw",@progbits,MIX_FADING_OUT,comdat
	.weak	MIX_FADING_OUT
	.align	4
MIX_FADING_OUT:
	.long	1                       # 0x1
	.size	MIX_FADING_OUT, 4

	.type	MIX_FADING_IN,@object   # @MIX_FADING_IN
	.section	.data.MIX_FADING_IN,"aGw",@progbits,MIX_FADING_IN,comdat
	.weak	MIX_FADING_IN
	.align	4
MIX_FADING_IN:
	.long	2                       # 0x2
	.size	MIX_FADING_IN, 4

	.type	SDL_BUTTON_LEFT,@object # @SDL_BUTTON_LEFT
	.section	.data.SDL_BUTTON_LEFT,"aGw",@progbits,SDL_BUTTON_LEFT,comdat
	.weak	SDL_BUTTON_LEFT
	.align	4
SDL_BUTTON_LEFT:
	.long	1                       # 0x1
	.size	SDL_BUTTON_LEFT, 4

	.type	SDL_BUTTON_MIDDLE,@object # @SDL_BUTTON_MIDDLE
	.section	.data.SDL_BUTTON_MIDDLE,"aGw",@progbits,SDL_BUTTON_MIDDLE,comdat
	.weak	SDL_BUTTON_MIDDLE
	.align	4
SDL_BUTTON_MIDDLE:
	.long	2                       # 0x2
	.size	SDL_BUTTON_MIDDLE, 4

	.type	SDL_BUTTON_RIGHT,@object # @SDL_BUTTON_RIGHT
	.section	.data.SDL_BUTTON_RIGHT,"aGw",@progbits,SDL_BUTTON_RIGHT,comdat
	.weak	SDL_BUTTON_RIGHT
	.align	4
SDL_BUTTON_RIGHT:
	.long	3                       # 0x3
	.size	SDL_BUTTON_RIGHT, 4

	.type	SDL_SWSURFACE,@object   # @SDL_SWSURFACE
	.section	.bss.SDL_SWSURFACE,"aGw",@nobits,SDL_SWSURFACE,comdat
	.weak	SDL_SWSURFACE
	.align	4
SDL_SWSURFACE:
	.long	0                       # 0x0
	.size	SDL_SWSURFACE, 4

	.type	RAND_MAX,@object        # @RAND_MAX
	.section	.data.RAND_MAX,"aGw",@progbits,RAND_MAX,comdat
	.weak	RAND_MAX
	.align	4
RAND_MAX:
	.long	214783647               # 0xccd569f
	.size	RAND_MAX, 4

	.type	EXIT_FAILURE,@object    # @EXIT_FAILURE
	.section	.data.EXIT_FAILURE,"aGw",@progbits,EXIT_FAILURE,comdat
	.weak	EXIT_FAILURE
	.align	4
EXIT_FAILURE:
	.long	1                       # 0x1
	.size	EXIT_FAILURE, 4

	.type	EXIT_SUCCESS,@object    # @EXIT_SUCCESS
	.section	.bss.EXIT_SUCCESS,"aGw",@nobits,EXIT_SUCCESS,comdat
	.weak	EXIT_SUCCESS
	.align	4
EXIT_SUCCESS:
	.long	0                       # 0x0
	.size	EXIT_SUCCESS, 4

	.type	EOF,@object             # @EOF
	.section	.data.EOF,"aGw",@progbits,EOF,comdat
	.weak	EOF
	.align	4
EOF:
	.long	4294967295              # 0xffffffff
	.size	EOF, 4

	.type	.L__unnamed_2,@object   # @1
	.section	.rodata,"a",@progbits
.L__unnamed_2:
	.asciz	"/tmp"
	.size	.L__unnamed_2, 5

	.type	P_tmpdir,@object        # @P_tmpdir
	.section	.data.P_tmpdir,"aGw",@progbits,P_tmpdir,comdat
	.weak	P_tmpdir
	.align	8
P_tmpdir:
	.quad	.L__unnamed_2
	.size	P_tmpdir, 8

	.type	SEEK_SET,@object        # @SEEK_SET
	.section	.bss.SEEK_SET,"aGw",@nobits,SEEK_SET,comdat
	.weak	SEEK_SET
	.align	4
SEEK_SET:
	.long	0                       # 0x0
	.size	SEEK_SET, 4

	.type	SEEK_CUR,@object        # @SEEK_CUR
	.section	.data.SEEK_CUR,"aGw",@progbits,SEEK_CUR,comdat
	.weak	SEEK_CUR
	.align	4
SEEK_CUR:
	.long	1                       # 0x1
	.size	SEEK_CUR, 4

	.type	SEEK_END,@object        # @SEEK_END
	.section	.data.SEEK_END,"aGw",@progbits,SEEK_END,comdat
	.weak	SEEK_END
	.align	4
SEEK_END:
	.long	2                       # 0x2
	.size	SEEK_END, 4

	.type	stdin,@object           # @stdin
	.bss
	.globl	stdin
	.align	8
stdin:
	.quad	0
	.size	stdin, 8

	.type	stdout,@object          # @stdout
	.globl	stdout
	.align	8
stdout:
	.quad	0
	.size	stdout, 8

	.type	stderr,@object          # @stderr
	.globl	stderr
	.align	8
stderr:
	.quad	0
	.size	stderr, 8

	.section	.bss.EXIT_SUCCESS,"aGw",@nobits,EXIT_SUCCESS,comdat
.Ldebug_end0:
	.section	.bss.KMOD_NONE,"aGw",@nobits,KMOD_NONE,comdat
.Ldebug_end1:
	.section	.bss.MIX_NO_FADING,"aGw",@nobits,MIX_NO_FADING,comdat
.Ldebug_end2:
	.section	.bss.SDL_AUDIO_STOPPED,"aGw",@nobits,SDL_AUDIO_STOPPED,comdat
.Ldebug_end3:
	.section	.bss.SDL_SWSURFACE,"aGw",@nobits,SDL_SWSURFACE,comdat
.Ldebug_end4:
	.section	.bss.SEEK_SET,"aGw",@nobits,SEEK_SET,comdat
.Ldebug_end5:
	.section	.bss.back,"aGw",@nobits,back,comdat
.Ldebug_end6:
	.section	.bss.surf,"aGw",@nobits,surf,comdat
.Ldebug_end7:
	.section	.bss.testval,"aGw",@nobits,testval,comdat
.Ldebug_end8:
	.bss
.Ldebug_end9:
	.section	.data.AUDIO_S16LSB,"aGw",@progbits,AUDIO_S16LSB,comdat
.Ldebug_end10:
	.section	.data.AUDIO_S8,"aGw",@progbits,AUDIO_S8,comdat
.Ldebug_end11:
	.section	.data.AUDIO_U16LSB,"aGw",@progbits,AUDIO_U16LSB,comdat
.Ldebug_end12:
	.section	.data.AUDIO_U8,"aGw",@progbits,AUDIO_U8,comdat
.Ldebug_end13:
	.section	.data.EOF,"aGw",@progbits,EOF,comdat
.Ldebug_end14:
	.section	.data.EXIT_FAILURE,"aGw",@progbits,EXIT_FAILURE,comdat
.Ldebug_end15:
	.section	.data.IMG_INIT_JPG,"aGw",@progbits,IMG_INIT_JPG,comdat
.Ldebug_end16:
	.section	.data.IMG_INIT_PNG,"aGw",@progbits,IMG_INIT_PNG,comdat
.Ldebug_end17:
	.section	.data.IMG_INIT_TIF,"aGw",@progbits,IMG_INIT_TIF,comdat
.Ldebug_end18:
	.section	.data.IMG_INIT_WEBP,"aGw",@progbits,IMG_INIT_WEBP,comdat
.Ldebug_end19:
	.section	.data.KMOD_LALT,"aGw",@progbits,KMOD_LALT,comdat
.Ldebug_end20:
	.section	.data.KMOD_LCTRL,"aGw",@progbits,KMOD_LCTRL,comdat
.Ldebug_end21:
	.section	.data.KMOD_LSHIFT,"aGw",@progbits,KMOD_LSHIFT,comdat
.Ldebug_end22:
	.section	.data.KMOD_RALT,"aGw",@progbits,KMOD_RALT,comdat
.Ldebug_end23:
	.section	.data.KMOD_RCTRL,"aGw",@progbits,KMOD_RCTRL,comdat
.Ldebug_end24:
	.section	.data.KMOD_RSHIFT,"aGw",@progbits,KMOD_RSHIFT,comdat
.Ldebug_end25:
	.section	.data.MIX_CHANNELS,"aGw",@progbits,MIX_CHANNELS,comdat
.Ldebug_end26:
	.section	.data.MIX_FADING_IN,"aGw",@progbits,MIX_FADING_IN,comdat
.Ldebug_end27:
	.section	.data.MIX_FADING_OUT,"aGw",@progbits,MIX_FADING_OUT,comdat
.Ldebug_end28:
	.section	.data.MIX_INIT_FLAC,"aGw",@progbits,MIX_INIT_FLAC,comdat
.Ldebug_end29:
	.section	.data.MIX_INIT_MOD,"aGw",@progbits,MIX_INIT_MOD,comdat
.Ldebug_end30:
	.section	.data.MIX_INIT_MP3,"aGw",@progbits,MIX_INIT_MP3,comdat
.Ldebug_end31:
	.section	.data.MIX_INIT_OGG,"aGw",@progbits,MIX_INIT_OGG,comdat
.Ldebug_end32:
	.section	.data.P_tmpdir,"aGw",@progbits,P_tmpdir,comdat
.Ldebug_end33:
	.section	.data.RAND_MAX1,"aGw",@progbits,RAND_MAX1,comdat
.Ldebug_end34:
	.section	.data.RAND_MAX,"aGw",@progbits,RAND_MAX,comdat
.Ldebug_end35:
	.section	.data.SDLK_0,"aGw",@progbits,SDLK_0,comdat
.Ldebug_end36:
	.section	.data.SDLK_1,"aGw",@progbits,SDLK_1,comdat
.Ldebug_end37:
	.section	.data.SDLK_2,"aGw",@progbits,SDLK_2,comdat
.Ldebug_end38:
	.section	.data.SDLK_3,"aGw",@progbits,SDLK_3,comdat
.Ldebug_end39:
	.section	.data.SDLK_4,"aGw",@progbits,SDLK_4,comdat
.Ldebug_end40:
	.section	.data.SDLK_5,"aGw",@progbits,SDLK_5,comdat
.Ldebug_end41:
	.section	.data.SDLK_6,"aGw",@progbits,SDLK_6,comdat
.Ldebug_end42:
	.section	.data.SDLK_7,"aGw",@progbits,SDLK_7,comdat
.Ldebug_end43:
	.section	.data.SDLK_8,"aGw",@progbits,SDLK_8,comdat
.Ldebug_end44:
	.section	.data.SDLK_9,"aGw",@progbits,SDLK_9,comdat
.Ldebug_end45:
	.section	.data.SDLK_AMPERSAND,"aGw",@progbits,SDLK_AMPERSAND,comdat
.Ldebug_end46:
	.section	.data.SDLK_ASTERISK,"aGw",@progbits,SDLK_ASTERISK,comdat
.Ldebug_end47:
	.section	.data.SDLK_AT,"aGw",@progbits,SDLK_AT,comdat
.Ldebug_end48:
	.section	.data.SDLK_BACKQUOTE,"aGw",@progbits,SDLK_BACKQUOTE,comdat
.Ldebug_end49:
	.section	.data.SDLK_BACKSLASH,"aGw",@progbits,SDLK_BACKSLASH,comdat
.Ldebug_end50:
	.section	.data.SDLK_BACKSPACE,"aGw",@progbits,SDLK_BACKSPACE,comdat
.Ldebug_end51:
	.section	.data.SDLK_CARET,"aGw",@progbits,SDLK_CARET,comdat
.Ldebug_end52:
	.section	.data.SDLK_CLEAR,"aGw",@progbits,SDLK_CLEAR,comdat
.Ldebug_end53:
	.section	.data.SDLK_COLON,"aGw",@progbits,SDLK_COLON,comdat
.Ldebug_end54:
	.section	.data.SDLK_COMMA,"aGw",@progbits,SDLK_COMMA,comdat
.Ldebug_end55:
	.section	.data.SDLK_DELETE,"aGw",@progbits,SDLK_DELETE,comdat
.Ldebug_end56:
	.section	.data.SDLK_DOLLAR,"aGw",@progbits,SDLK_DOLLAR,comdat
.Ldebug_end57:
	.section	.data.SDLK_DOWN,"aGw",@progbits,SDLK_DOWN,comdat
.Ldebug_end58:
	.section	.data.SDLK_END,"aGw",@progbits,SDLK_END,comdat
.Ldebug_end59:
	.section	.data.SDLK_EQUALS,"aGw",@progbits,SDLK_EQUALS,comdat
.Ldebug_end60:
	.section	.data.SDLK_ESCAPE,"aGw",@progbits,SDLK_ESCAPE,comdat
.Ldebug_end61:
	.section	.data.SDLK_EXCLAIM,"aGw",@progbits,SDLK_EXCLAIM,comdat
.Ldebug_end62:
	.section	.data.SDLK_GREATER,"aGw",@progbits,SDLK_GREATER,comdat
.Ldebug_end63:
	.section	.data.SDLK_HASH,"aGw",@progbits,SDLK_HASH,comdat
.Ldebug_end64:
	.section	.data.SDLK_HOME,"aGw",@progbits,SDLK_HOME,comdat
.Ldebug_end65:
	.section	.data.SDLK_INSERT,"aGw",@progbits,SDLK_INSERT,comdat
.Ldebug_end66:
	.section	.data.SDLK_LEFTBRACKET,"aGw",@progbits,SDLK_LEFTBRACKET,comdat
.Ldebug_end67:
	.section	.data.SDLK_LEFTPAREN,"aGw",@progbits,SDLK_LEFTPAREN,comdat
.Ldebug_end68:
	.section	.data.SDLK_LEFT,"aGw",@progbits,SDLK_LEFT,comdat
.Ldebug_end69:
	.section	.data.SDLK_LESS,"aGw",@progbits,SDLK_LESS,comdat
.Ldebug_end70:
	.section	.data.SDLK_MINUS,"aGw",@progbits,SDLK_MINUS,comdat
.Ldebug_end71:
	.section	.data.SDLK_PAGEDOWN,"aGw",@progbits,SDLK_PAGEDOWN,comdat
.Ldebug_end72:
	.section	.data.SDLK_PAGEUP,"aGw",@progbits,SDLK_PAGEUP,comdat
.Ldebug_end73:
	.section	.data.SDLK_PAUSE,"aGw",@progbits,SDLK_PAUSE,comdat
.Ldebug_end74:
	.section	.data.SDLK_PERIOD,"aGw",@progbits,SDLK_PERIOD,comdat
.Ldebug_end75:
	.section	.data.SDLK_PLUS,"aGw",@progbits,SDLK_PLUS,comdat
.Ldebug_end76:
	.section	.data.SDLK_QUESTION,"aGw",@progbits,SDLK_QUESTION,comdat
.Ldebug_end77:
	.section	.data.SDLK_QUOTEDBL,"aGw",@progbits,SDLK_QUOTEDBL,comdat
.Ldebug_end78:
	.section	.data.SDLK_QUOTE,"aGw",@progbits,SDLK_QUOTE,comdat
.Ldebug_end79:
	.section	.data.SDLK_RETURN,"aGw",@progbits,SDLK_RETURN,comdat
.Ldebug_end80:
	.section	.data.SDLK_RIGHTBRACKET,"aGw",@progbits,SDLK_RIGHTBRACKET,comdat
.Ldebug_end81:
	.section	.data.SDLK_RIGHTPAREN,"aGw",@progbits,SDLK_RIGHTPAREN,comdat
.Ldebug_end82:
	.section	.data.SDLK_RIGHT,"aGw",@progbits,SDLK_RIGHT,comdat
.Ldebug_end83:
	.section	.data.SDLK_SEMICOLON,"aGw",@progbits,SDLK_SEMICOLON,comdat
.Ldebug_end84:
	.section	.data.SDLK_SLASH,"aGw",@progbits,SDLK_SLASH,comdat
.Ldebug_end85:
	.section	.data.SDLK_SPACE,"aGw",@progbits,SDLK_SPACE,comdat
.Ldebug_end86:
	.section	.data.SDLK_TAB,"aGw",@progbits,SDLK_TAB,comdat
.Ldebug_end87:
	.section	.data.SDLK_UNDERSCORE,"aGw",@progbits,SDLK_UNDERSCORE,comdat
.Ldebug_end88:
	.section	.data.SDLK_UP,"aGw",@progbits,SDLK_UP,comdat
.Ldebug_end89:
	.section	.data.SDLK_a,"aGw",@progbits,SDLK_a,comdat
.Ldebug_end90:
	.section	.data.SDLK_b,"aGw",@progbits,SDLK_b,comdat
.Ldebug_end91:
	.section	.data.SDLK_c,"aGw",@progbits,SDLK_c,comdat
.Ldebug_end92:
	.section	.data.SDLK_d,"aGw",@progbits,SDLK_d,comdat
.Ldebug_end93:
	.section	.data.SDLK_e,"aGw",@progbits,SDLK_e,comdat
.Ldebug_end94:
	.section	.data.SDLK_f,"aGw",@progbits,SDLK_f,comdat
.Ldebug_end95:
	.section	.data.SDLK_g,"aGw",@progbits,SDLK_g,comdat
.Ldebug_end96:
	.section	.data.SDLK_h,"aGw",@progbits,SDLK_h,comdat
.Ldebug_end97:
	.section	.data.SDLK_i,"aGw",@progbits,SDLK_i,comdat
.Ldebug_end98:
	.section	.data.SDLK_j,"aGw",@progbits,SDLK_j,comdat
.Ldebug_end99:
	.section	.data.SDLK_k,"aGw",@progbits,SDLK_k,comdat
.Ldebug_end100:
	.section	.data.SDLK_l,"aGw",@progbits,SDLK_l,comdat
.Ldebug_end101:
	.section	.data.SDLK_m,"aGw",@progbits,SDLK_m,comdat
.Ldebug_end102:
	.section	.data.SDLK_n,"aGw",@progbits,SDLK_n,comdat
.Ldebug_end103:
	.section	.data.SDLK_o,"aGw",@progbits,SDLK_o,comdat
.Ldebug_end104:
	.section	.data.SDLK_p,"aGw",@progbits,SDLK_p,comdat
.Ldebug_end105:
	.section	.data.SDLK_q,"aGw",@progbits,SDLK_q,comdat
.Ldebug_end106:
	.section	.data.SDLK_r,"aGw",@progbits,SDLK_r,comdat
.Ldebug_end107:
	.section	.data.SDLK_s,"aGw",@progbits,SDLK_s,comdat
.Ldebug_end108:
	.section	.data.SDLK_t,"aGw",@progbits,SDLK_t,comdat
.Ldebug_end109:
	.section	.data.SDLK_u,"aGw",@progbits,SDLK_u,comdat
.Ldebug_end110:
	.section	.data.SDLK_v,"aGw",@progbits,SDLK_v,comdat
.Ldebug_end111:
	.section	.data.SDLK_w,"aGw",@progbits,SDLK_w,comdat
.Ldebug_end112:
	.section	.data.SDLK_x,"aGw",@progbits,SDLK_x,comdat
.Ldebug_end113:
	.section	.data.SDLK_y,"aGw",@progbits,SDLK_y,comdat
.Ldebug_end114:
	.section	.data.SDLK_z,"aGw",@progbits,SDLK_z,comdat
.Ldebug_end115:
	.section	.data.SDL_APPACTIVE,"aGw",@progbits,SDL_APPACTIVE,comdat
.Ldebug_end116:
	.section	.data.SDL_APPINPUTFOCUS,"aGw",@progbits,SDL_APPINPUTFOCUS,comdat
.Ldebug_end117:
	.section	.data.SDL_APPMOUSEFOCUS,"aGw",@progbits,SDL_APPMOUSEFOCUS,comdat
.Ldebug_end118:
	.section	.data.SDL_AUDIO_PAUSED,"aGw",@progbits,SDL_AUDIO_PAUSED,comdat
.Ldebug_end119:
	.section	.data.SDL_AUDIO_PLAYING,"aGw",@progbits,SDL_AUDIO_PLAYING,comdat
.Ldebug_end120:
	.section	.data.SDL_BUTTON_LEFT,"aGw",@progbits,SDL_BUTTON_LEFT,comdat
.Ldebug_end121:
	.section	.data.SDL_BUTTON_MIDDLE,"aGw",@progbits,SDL_BUTTON_MIDDLE,comdat
.Ldebug_end122:
	.section	.data.SDL_BUTTON_RIGHT,"aGw",@progbits,SDL_BUTTON_RIGHT,comdat
.Ldebug_end123:
	.section	.data.SDL_DEFAULT_REPEAT_DELAY,"aGw",@progbits,SDL_DEFAULT_REPEAT_DELAY,comdat
.Ldebug_end124:
	.section	.data.SDL_DEFAULT_REPEAT_INTERVAL,"aGw",@progbits,SDL_DEFAULT_REPEAT_INTERVAL,comdat
.Ldebug_end125:
	.section	.data.SDL_INIT_AUDIO,"aGw",@progbits,SDL_INIT_AUDIO,comdat
.Ldebug_end126:
	.section	.data.SDL_INIT_CDROM,"aGw",@progbits,SDL_INIT_CDROM,comdat
.Ldebug_end127:
	.section	.data.SDL_INIT_EVERYTHING,"aGw",@progbits,SDL_INIT_EVERYTHING,comdat
.Ldebug_end128:
	.section	.data.SDL_INIT_JOYSTICK,"aGw",@progbits,SDL_INIT_JOYSTICK,comdat
.Ldebug_end129:
	.section	.data.SDL_INIT_TIMER,"aGw",@progbits,SDL_INIT_TIMER,comdat
.Ldebug_end130:
	.section	.data.SDL_INIT_VIDEO,"aGw",@progbits,SDL_INIT_VIDEO,comdat
.Ldebug_end131:
	.section	.data.SEEK_CUR,"aGw",@progbits,SEEK_CUR,comdat
.Ldebug_end132:
	.section	.data.SEEK_END,"aGw",@progbits,SEEK_END,comdat
.Ldebug_end133:
	.text
.Ldebug_end134:
	.section	".note.GNU-stack","",@progbits
